; Function Attrs: mustprogress nofree norecurse nosync nounwind willreturn memory(argmem: write) uwtable
define hidden void @_ZN4cvc58internal6theory5arith6linear7NodeLogC2Ev(ptr noundef nonnull align 8 dereferenceable(200) initializes((0, 4), (8, 48)) %0) unnamed_addr #8 align 2 personality ptr @__gxx_personality_v0 {
  store i32 -1, ptr %0, align 8, !tbaa !121
  %2 = getelementptr inbounds nuw i8, ptr %0, i64 8
  %3 = getelementptr inbounds nuw i8, ptr %0, i64 32
  %4 = getelementptr inbounds nuw i8, ptr %0, i64 48
  tail call void @llvm.memset.p0.i64(ptr noundef nonnull align 8 dereferenceable(40) %2, i8 0, i64 40, i1 false)
  store ptr %3, ptr %4, align 8, !tbaa !3
  %5 = getelementptr inbounds nuw i8, ptr %0, i64 56
  store ptr %3, ptr %5, align 8, !tbaa !122
  %6 = getelementptr inbounds nuw i8, ptr %0, i64 64
  %7 = getelementptr inbounds nuw i8, ptr %0, i64 80
  %8 = getelementptr inbounds nuw i8, ptr %0, i64 96
  tail call void @llvm.memset.p0.i64(ptr noundef nonnull align 8 dereferenceable(32) %6, i8 0, i64 32, i1 false)
  store ptr %7, ptr %8, align 8, !tbaa !3
  %9 = getelementptr inbounds nuw i8, ptr %0, i64 104
  store ptr %7, ptr %9, align 8, !tbaa !122
  %10 = getelementptr inbounds nuw i8, ptr %0, i64 112
  store i64 0, ptr %10, align 8, !tbaa !123
  %11 = getelementptr inbounds nuw i8, ptr %0, i64 120
  store i32 0, ptr %11, align 8, !tbaa !124
  %12 = getelementptr inbounds nuw i8, ptr %0, i64 124
  store i32 -1, ptr %12, align 4, !tbaa !101
  %13 = getelementptr inbounds nuw i8, ptr %0, i64 128
  store double 0.000000e+00, ptr %13, align 8, !tbaa !125
  %14 = getelementptr inbounds nuw i8, ptr %0, i64 136
  store i32 -1, ptr %14, align 8, !tbaa !126
  %15 = getelementptr inbounds nuw i8, ptr %0, i64 140
  store i32 -1, ptr %15, align 4, !tbaa !127
  %16 = getelementptr inbounds nuw i8, ptr %0, i64 144
  %17 = getelementptr inbounds nuw i8, ptr %0, i64 176
  store i64 0, ptr %17, align 8
  %18 = getelementptr inbounds nuw i8, ptr %0, i64 192
  store ptr %18, ptr %16, align 8, !tbaa !128
  %19 = getelementptr inbounds nuw i8, ptr %0, i64 152
  store i64 1, ptr %19, align 8, !tbaa !129
  %20 = getelementptr inbounds nuw i8, ptr %0, i64 160
  %21 = getelementptr inbounds nuw i8, ptr %0, i64 176
  tail call void @llvm.memset.p0.i64(ptr noundef nonnull align 8 dereferenceable(16) %20, i8 0, i64 16, i1 false)
  store float 1.000000e+00, ptr %21, align 8, !tbaa !130
  %22 = getelementptr inbounds nuw i8, ptr %0, i64 184
  tail call void @llvm.memset.p0.i64(ptr noundef nonnull align 8 dereferenceable(16) %22, i8 0, i64 16, i1 false)
  ret void
}